target datalayout = "e-m:e-p270:32:32-p271:32:32-p272:64:64-i64:64-i128:128-f80:128-n8:16:32:64-S128"
target triple = "x86_64-pc-linux-gnu"

%"class.open3d::visualization::glsl::GeometryRenderer.base" = type <{ ptr, %"class.std::shared_ptr", i8 }>
%"class.std::shared_ptr" = type { %"class.std::__shared_ptr" }
%"class.std::__shared_ptr" = type { ptr, %"class.std::__shared_count" }
%"class.std::__shared_count" = type { ptr }
%"class.open3d::visualization::glsl::ShaderWrapper" = type { ptr, i32, i32, i32, i32, i32, i32, i8, i8, %"class.std::__cxx11::basic_string" }
%"class.std::__cxx11::basic_string" = type { %"struct.std::__cxx11::basic_string<char>::_Alloc_hider", i64, %union.anon }
%"struct.std::__cxx11::basic_string<char>::_Alloc_hider" = type { ptr }
%union.anon = type { i64, [8 x i8] }
%"class.open3d::visualization::glsl::GeometryRenderer" = type <{ ptr, %"class.std::shared_ptr", i8, [7 x i8] }>
%"class.Eigen::Matrix.86" = type { %"class.Eigen::PlainObjectBase.87" }
%"class.Eigen::PlainObjectBase.87" = type { %"class.Eigen::DenseStorage.94" }
%"class.Eigen::DenseStorage.94" = type { %"struct.Eigen::internal::plain_array.95" }
%"struct.Eigen::internal::plain_array.95" = type { [3 x float] }
%"class.open3d::visualization::glsl::SelectionPolygonRenderer" = type { %"class.open3d::visualization::glsl::GeometryRenderer.base", %"class.open3d::visualization::glsl::Simple2DShaderForSelectionPolygon", %"class.open3d::visualization::glsl::ImageMaskShaderForImage" }
%"class.open3d::visualization::glsl::Simple2DShaderForSelectionPolygon" = type { %"class.open3d::visualization::glsl::Simple2DShader" }
%"class.open3d::visualization::glsl::Simple2DShader" = type { %"class.open3d::visualization::glsl::ShaderWrapper", i32, i32, i32, i32 }
%"class.open3d::visualization::glsl::ImageMaskShaderForImage" = type { %"class.open3d::visualization::glsl::ImageMaskShader" }
%"class.open3d::visualization::glsl::ImageMaskShader" = type { %"class.open3d::visualization::glsl::ShaderWrapper", i32, i32, i32, i32, i32, i32, i32, i32, %"class.Eigen::Matrix.86", float }
%"class.open3d::visualization::SelectionPolygon" = type <{ %"class.open3d::geometry::Geometry2D", %"class.std::vector.66", i8, [7 x i8], %"class.open3d::geometry::Image", i32, [4 x i8] }>
%"class.open3d::geometry::Geometry2D" = type { %"class.open3d::geometry::Geometry" }
%"class.open3d::geometry::Geometry" = type { ptr, i32, i32, %"class.std::__cxx11::basic_string" }
%"class.std::vector.66" = type { %"struct.std::_Vector_base.67" }
%"struct.std::_Vector_base.67" = type { %"struct.std::_Vector_base<Eigen::Matrix<double, 2, 1>, std::allocator<Eigen::Matrix<double, 2, 1>>>::_Vector_impl" }
%"struct.std::_Vector_base<Eigen::Matrix<double, 2, 1>, std::allocator<Eigen::Matrix<double, 2, 1>>>::_Vector_impl" = type { %"struct.std::_Vector_base<Eigen::Matrix<double, 2, 1>, std::allocator<Eigen::Matrix<double, 2, 1>>>::_Vector_impl_data" }
%"struct.std::_Vector_base<Eigen::Matrix<double, 2, 1>, std::allocator<Eigen::Matrix<double, 2, 1>>>::_Vector_impl_data" = type { ptr, ptr, ptr }
%"class.open3d::geometry::Image" = type { %"class.open3d::geometry::Geometry2D", i32, i32, i32, i32, %"class.std::vector.81" }
%"class.std::vector.81" = type { %"struct.std::_Vector_base.82" }
%"struct.std::_Vector_base.82" = type { %"struct.std::_Vector_base<unsigned char, std::allocator<unsigned char>>::_Vector_impl" }
%"struct.std::_Vector_base<unsigned char, std::allocator<unsigned char>>::_Vector_impl" = type { %"struct.std::_Vector_base<unsigned char, std::allocator<unsigned char>>::_Vector_impl_data" }
%"struct.std::_Vector_base<unsigned char, std::allocator<unsigned char>>::_Vector_impl_data" = type { ptr, ptr, ptr }

; Function Attrs: mustprogress nounwind ssp uwtable
define linkonce_odr hidden noundef ptr @_ZNKSt12__shared_ptrIKN6open3d8geometry8GeometryELN9__gnu_cxx12_Lock_policyE2EE3getEv(ptr noundef nonnull align 8 dereferenceable(16) %0) #0 comdat align 2 {
  %2 = alloca ptr, align 8
  store ptr %0, ptr %2, align 8, !tbaa !225
  %3 = load ptr, ptr %2, align 8
  %4 = getelementptr inbounds nuw %"class.std::__shared_ptr", ptr %3, i32 0, i32 0
  %5 = load ptr, ptr %4, align 8, !tbaa !227
  ret ptr %5
}

; Function Attrs: mustprogress nounwind ssp uwtable
define linkonce_odr hidden noundef ptr @_ZNKSt19__shared_ptr_accessIKN6open3d8geometry8GeometryELN9__gnu_cxx12_Lock_policyE2ELb0ELb0EE6_M_getEv(ptr noundef nonnull align 1 dereferenceable(1) %0) #0 comdat align 2 {
  %2 = alloca ptr, align 8
  store ptr %0, ptr %2, align 8, !tbaa !223
  %3 = load ptr, ptr %2, align 8
  %4 = call noundef ptr @_ZNKSt12__shared_ptrIKN6open3d8geometry8GeometryELN9__gnu_cxx12_Lock_policyE2EE3getEv(ptr noundef nonnull align 8 dereferenceable(16) %3) #7
  ret ptr %4
}

; Function Attrs: mustprogress nounwind ssp uwtable
define linkonce_odr hidden noundef nonnull align 8 dereferenceable(48) ptr @_ZNKSt19__shared_ptr_accessIKN6open3d8geometry8GeometryELN9__gnu_cxx12_Lock_policyE2ELb0ELb0EEdeEv(ptr noundef nonnull align 1 dereferenceable(1) %0) #0 comdat align 2 {
  %2 = alloca ptr, align 8
  store ptr %0, ptr %2, align 8, !tbaa !223
  %3 = load ptr, ptr %2, align 8
  br label %4

4:                                                ; preds = %1
  br label %5

5:                                                ; preds = %4
  br label %6

6:                                                ; preds = %5
  %7 = call noundef ptr @_ZNKSt19__shared_ptr_accessIKN6open3d8geometry8GeometryELN9__gnu_cxx12_Lock_policyE2ELb0ELb0EE6_M_getEv(ptr noundef nonnull align 1 dereferenceable(1) %3) #7
  ret ptr %7
}

; Function Attrs: mustprogress nounwind ssp uwtable
define linkonce_odr hidden noundef ptr @_ZNKSt19__shared_ptr_accessIKN6open3d8geometry8GeometryELN9__gnu_cxx12_Lock_policyE2ELb0ELb0EEptEv(ptr noundef nonnull align 1 dereferenceable(1) %0) #0 comdat align 2 {
  %2 = alloca ptr, align 8
  store ptr %0, ptr %2, align 8, !tbaa !223
  %3 = load ptr, ptr %2, align 8
  %4 = call noundef ptr @_ZNKSt19__shared_ptr_accessIKN6open3d8geometry8GeometryELN9__gnu_cxx12_Lock_policyE2ELb0ELb0EE6_M_getEv(ptr noundef nonnull align 1 dereferenceable(1) %3) #7
  ret ptr %4
}

; Function Attrs: mustprogress ssp uwtable
define hidden noundef zeroext i1 @_ZN6open3d13visualization4glsl24SelectionPolygonRenderer6RenderERKNS0_12RenderOptionERKNS0_11ViewControlE(ptr noundef nonnull align 8 dereferenceable(240) %0, ptr noundef nonnull align 8 dereferenceable(497) %1, ptr noundef nonnull align 16 dereferenceable(728) %2) unnamed_addr #1 align 2 {
  %4 = alloca i1, align 1
  %5 = alloca ptr, align 8
  %6 = alloca ptr, align 8
  %7 = alloca ptr, align 8
  %8 = alloca ptr, align 8
  %9 = alloca i32, align 4
  store ptr %0, ptr %5, align 8, !tbaa !73
  store ptr %1, ptr %6, align 8, !tbaa !11
  store ptr %2, ptr %7, align 8, !tbaa !13
  %10 = load ptr, ptr %5, align 8
  %11 = getelementptr inbounds nuw %"class.open3d::visualization::glsl::GeometryRenderer", ptr %10, i32 0, i32 2
  %12 = load i8, ptr %11, align 8, !tbaa !15, !range !23, !noundef !24
  %13 = trunc i8 %12 to i1
  br i1 %13, label %14, label %21

14:                                               ; preds = %3
  %15 = getelementptr inbounds nuw %"class.open3d::visualization::glsl::GeometryRenderer", ptr %10, i32 0, i32 1
  %16 = call noundef ptr @_ZNKSt19__shared_ptr_accessIKN6open3d8geometry8GeometryELN9__gnu_cxx12_Lock_policyE2ELb0ELb0EEptEv(ptr noundef nonnull align 1 dereferenceable(1) %15) #7
  %17 = load ptr, ptr %16, align 8, !tbaa !9
  %18 = getelementptr inbounds ptr, ptr %17, i64 3
  %19 = load ptr, ptr %18, align 8
  %20 = call noundef zeroext i1 %19(ptr noundef nonnull align 8 dereferenceable(48) %16)
  br i1 %20, label %21, label %22

21:                                               ; preds = %14, %3
  store i1 true, ptr %4, align 1
  br label %51

22:                                               ; preds = %14
  call void @llvm.lifetime.start.p0(i64 8, ptr %8) #7
  %23 = getelementptr inbounds nuw %"class.open3d::visualization::glsl::GeometryRenderer", ptr %10, i32 0, i32 1
  %24 = call noundef nonnull align 8 dereferenceable(48) ptr @_ZNKSt19__shared_ptr_accessIKN6open3d8geometry8GeometryELN9__gnu_cxx12_Lock_policyE2ELb0ELb0EEdeEv(ptr noundef nonnull align 1 dereferenceable(1) %23) #7
  store ptr %24, ptr %8, align 8, !tbaa !75
  %25 = load ptr, ptr %8, align 8, !tbaa !75
  %26 = load ptr, ptr %25, align 8, !tbaa !9
  %27 = getelementptr inbounds ptr, ptr %26, i64 3
  %28 = load ptr, ptr %27, align 8
  %29 = call noundef zeroext i1 %28(ptr noundef nonnull align 8 dereferenceable(172) %25)
  br i1 %29, label %30, label %31

30:                                               ; preds = %22
  store i1 true, ptr %4, align 1
  store i32 1, ptr %9, align 4
  br label %50

31:                                               ; preds = %22
  %32 = getelementptr inbounds nuw %"class.open3d::visualization::glsl::SelectionPolygonRenderer", ptr %10, i32 0, i32 1
  %33 = load ptr, ptr %8, align 8, !tbaa !75
  %34 = load ptr, ptr %6, align 8, !tbaa !11
  %35 = load ptr, ptr %7, align 8, !tbaa !13
  %36 = call noundef zeroext i1 @_ZN6open3d13visualization4glsl13ShaderWrapper6RenderERKNS_8geometry8GeometryERKNS0_12RenderOptionERKNS0_11ViewControlE(ptr noundef nonnull align 8 dereferenceable(72) %32, ptr noundef nonnull align 8 dereferenceable(48) %33, ptr noundef nonnull align 8 dereferenceable(497) %34, ptr noundef nonnull align 16 dereferenceable(728) %35)
  br i1 %36, label %38, label %37

37:                                               ; preds = %31
  store i1 false, ptr %4, align 1
  store i32 1, ptr %9, align 4
  br label %50

38:                                               ; preds = %31
  %39 = load ptr, ptr %8, align 8, !tbaa !75
  %40 = getelementptr inbounds nuw %"class.open3d::visualization::SelectionPolygon", ptr %39, i32 0, i32 4
  %41 = call noundef zeroext i1 @_ZNK6open3d8geometry5Image7IsEmptyEv(ptr noundef nonnull align 8 dereferenceable(88) %40)
  br i1 %41, label %42, label %43

42:                                               ; preds = %38
  store i1 true, ptr %4, align 1
  store i32 1, ptr %9, align 4
  br label %50

43:                                               ; preds = %38
  %44 = getelementptr inbounds nuw %"class.open3d::visualization::glsl::SelectionPolygonRenderer", ptr %10, i32 0, i32 2
  %45 = load ptr, ptr %8, align 8, !tbaa !75
  %46 = getelementptr inbounds nuw %"class.open3d::visualization::SelectionPolygon", ptr %45, i32 0, i32 4
  %47 = load ptr, ptr %6, align 8, !tbaa !11
  %48 = load ptr, ptr %7, align 8, !tbaa !13
  %49 = call noundef zeroext i1 @_ZN6open3d13visualization4glsl13ShaderWrapper6RenderERKNS_8geometry8GeometryERKNS0_12RenderOptionERKNS0_11ViewControlE(ptr noundef nonnull align 8 dereferenceable(72) %44, ptr noundef nonnull align 8 dereferenceable(48) %46, ptr noundef nonnull align 8 dereferenceable(497) %47, ptr noundef nonnull align 16 dereferenceable(728) %48)
  store i1 %49, ptr %4, align 1
  store i32 1, ptr %9, align 4
  br label %50

50:                                               ; preds = %43, %42, %37, %30
  call void @llvm.lifetime.end.p0(i64 8, ptr %8) #7
  br label %51

51:                                               ; preds = %50, %21
  %52 = load i1, ptr %4, align 1
  ret i1 %52
}